; ModuleID = '27/1641.c'
source_filename = "27/1641.c"
target datalayout = "e-m:e-p270:32:32-p271:32:32-p272:64:64-i64:64-f80:128-n8:16:32:64-S128"
target triple = "x86_64-pc-linux-gnu"

@.str = private unnamed_addr constant [3 x i8] c"%d\00", align 1
@.str.1 = private unnamed_addr constant [12 x i8] c"%lf %lf %lf\00", align 1
@.str.2 = private unnamed_addr constant [13 x i8] c"x1=x2=%.5lf\0A\00", align 1
@.str.3 = private unnamed_addr constant [19 x i8] c"x1=%.5lf;x2=%.5lf\0A\00", align 1
@.str.4 = private unnamed_addr constant [17 x i8] c"x1=%.5lf+%.5lfi;\00", align 1
@.str.5 = private unnamed_addr constant [17 x i8] c"x2=%.5lf-%.5lfi\0A\00", align 1

; Function Attrs: noinline nounwind uwtable
define dso_local i32 @main(i32 %0, i8** %1) #0 {
  %3 = alloca i32, align 4
  %4 = alloca i32, align 4
  %5 = alloca i8**, align 8
  %6 = alloca i32, align 4
  %7 = alloca i32, align 4
  %8 = alloca [100 x double], align 16
  %9 = alloca [100 x double], align 16
  %10 = alloca [100 x double], align 16
  %11 = alloca double, align 8
  %12 = alloca double, align 8
  %13 = alloca double, align 8
  %14 = alloca double, align 8
  %15 = alloca double, align 8
  store i32 0, i32* %3, align 4
  store i32 %0, i32* %4, align 4
  store i8** %1, i8*** %5, align 8
  %16 = call i32 (i8*, ...) @__isoc99_scanf(i8* getelementptr inbounds ([3 x i8], [3 x i8]* @.str, i64 0, i64 0), i32* %6)
  store i32 0, i32* %7, align 4
  br label %17

17:                                               ; preds = %32, %2
  %18 = load i32, i32* %7, align 4
  %19 = load i32, i32* %6, align 4
  %20 = icmp slt i32 %18, %19
  br i1 %20, label %21, label %35

21:                                               ; preds = %17
  %22 = load i32, i32* %7, align 4
  %23 = sext i32 %22 to i64
  %24 = getelementptr inbounds [100 x double], [100 x double]* %8, i64 0, i64 %23
  %25 = load i32, i32* %7, align 4
  %26 = sext i32 %25 to i64
  %27 = getelementptr inbounds [100 x double], [100 x double]* %9, i64 0, i64 %26
  %28 = load i32, i32* %7, align 4
  %29 = sext i32 %28 to i64
  %30 = getelementptr inbounds [100 x double], [100 x double]* %10, i64 0, i64 %29
  %31 = call i32 (i8*, ...) @__isoc99_scanf(i8* getelementptr inbounds ([12 x i8], [12 x i8]* @.str.1, i64 0, i64 0), double* %24, double* %27, double* %30)
  br label %32

32:                                               ; preds = %21
  %33 = load i32, i32* %7, align 4
  %34 = add nsw i32 %33, 1
  store i32 %34, i32* %7, align 4
  br label %17

35:                                               ; preds = %17
  store i32 0, i32* %7, align 4
  br label %36

36:                                               ; preds = %126, %35
  %37 = load i32, i32* %7, align 4
  %38 = load i32, i32* %6, align 4
  %39 = icmp slt i32 %37, %38
  br i1 %39, label %40, label %129

40:                                               ; preds = %36
  %41 = load i32, i32* %7, align 4
  %42 = sext i32 %41 to i64
  %43 = getelementptr inbounds [100 x double], [100 x double]* %8, i64 0, i64 %42
  %44 = load double, double* %43, align 8
  %45 = fcmp une double %44, 0.000000e+00
  br i1 %45, label %46, label %125

46:                                               ; preds = %40
  %47 = load i32, i32* %7, align 4
  %48 = sext i32 %47 to i64
  %49 = getelementptr inbounds [100 x double], [100 x double]* %9, i64 0, i64 %48
  %50 = load double, double* %49, align 8
  %51 = load i32, i32* %7, align 4
  %52 = sext i32 %51 to i64
  %53 = getelementptr inbounds [100 x double], [100 x double]* %9, i64 0, i64 %52
  %54 = load double, double* %53, align 8
  %55 = fmul double %50, %54
  %56 = load i32, i32* %7, align 4
  %57 = sext i32 %56 to i64
  %58 = getelementptr inbounds [100 x double], [100 x double]* %8, i64 0, i64 %57
  %59 = load double, double* %58, align 8
  %60 = fmul double 4.000000e+00, %59
  %61 = load i32, i32* %7, align 4
  %62 = sext i32 %61 to i64
  %63 = getelementptr inbounds [100 x double], [100 x double]* %10, i64 0, i64 %62
  %64 = load double, double* %63, align 8
  %65 = fmul double %60, %64
  %66 = fsub double %55, %65
  store double %66, double* %11, align 8
  %67 = load i32, i32* %7, align 4
  %68 = sext i32 %67 to i64
  %69 = getelementptr inbounds [100 x double], [100 x double]* %9, i64 0, i64 %68
  %70 = load double, double* %69, align 8
  %71 = fcmp oeq double %70, 0.000000e+00
  br i1 %71, label %72, label %73

72:                                               ; preds = %46
  store double 0.000000e+00, double* %12, align 8
  br label %85

73:                                               ; preds = %46
  %74 = load i32, i32* %7, align 4
  %75 = sext i32 %74 to i64
  %76 = getelementptr inbounds [100 x double], [100 x double]* %9, i64 0, i64 %75
  %77 = load double, double* %76, align 8
  %78 = load i32, i32* %7, align 4
  %79 = sext i32 %78 to i64
  %80 = getelementptr inbounds [100 x double], [100 x double]* %8, i64 0, i64 %79
  %81 = load double, double* %80, align 8
  %82 = fmul double 2.000000e+00, %81
  %83 = fdiv double %77, %82
  %84 = fneg double %83
  store double %84, double* %12, align 8
  br label %85

85:                                               ; preds = %73, %72
  %86 = load double, double* %11, align 8
  %87 = call double @llvm.fabs.f64(double %86)
  %88 = call double @sqrt(double %87) #4
  %89 = load i32, i32* %7, align 4
  %90 = sext i32 %89 to i64
  %91 = getelementptr inbounds [100 x double], [100 x double]* %8, i64 0, i64 %90
  %92 = load double, double* %91, align 8
  %93 = fmul double 2.000000e+00, %92
  %94 = fdiv double %88, %93
  store double %94, double* %13, align 8
  %95 = load double, double* %11, align 8
  %96 = fcmp oeq double %95, 0.000000e+00
  br i1 %96, label %97, label %100

97:                                               ; preds = %85
  %98 = load double, double* %12, align 8
  %99 = call i32 (i8*, ...) @printf(i8* getelementptr inbounds ([13 x i8], [13 x i8]* @.str.2, i64 0, i64 0), double %98)
  br label %124

100:                                              ; preds = %85
  %101 = load double, double* %11, align 8
  %102 = fcmp ogt double %101, 0.000000e+00
  br i1 %102, label %103, label %113

103:                                              ; preds = %100
  %104 = load double, double* %12, align 8
  %105 = load double, double* %13, align 8
  %106 = fadd double %104, %105
  store double %106, double* %14, align 8
  %107 = load double, double* %12, align 8
  %108 = load double, double* %13, align 8
  %109 = fsub double %107, %108
  store double %109, double* %15, align 8
  %110 = load double, double* %14, align 8
  %111 = load double, double* %15, align 8
  %112 = call i32 (i8*, ...) @printf(i8* getelementptr inbounds ([19 x i8], [19 x i8]* @.str.3, i64 0, i64 0), double %110, double %111)
  br label %123

113:                                              ; preds = %100
  %114 = load double, double* %12, align 8
  %115 = call double @llvm.fabs.f64(double %114)
  %116 = fneg double %115
  store double %116, double* %12, align 8
  %117 = load double, double* %12, align 8
  %118 = load double, double* %13, align 8
  %119 = call i32 (i8*, ...) @printf(i8* getelementptr inbounds ([17 x i8], [17 x i8]* @.str.4, i64 0, i64 0), double %117, double %118)
  %120 = load double, double* %12, align 8
  %121 = load double, double* %13, align 8
  %122 = call i32 (i8*, ...) @printf(i8* getelementptr inbounds ([17 x i8], [17 x i8]* @.str.5, i64 0, i64 0), double %120, double %121)
  br label %123

123:                                              ; preds = %113, %103
  br label %124

124:                                              ; preds = %123, %97
  br label %125

125:                                              ; preds = %124, %40
  br label %126

126:                                              ; preds = %125
  %127 = load i32, i32* %7, align 4
  %128 = add nsw i32 %127, 1
  store i32 %128, i32* %7, align 4
  br label %36

129:                                              ; preds = %36
  ret i32 0
}

declare dso_local i32 @__isoc99_scanf(i8*, ...) #1

; Function Attrs: nounwind
declare dso_local double @sqrt(double) #2

; Function Attrs: nounwind readnone speculatable willreturn
declare double @llvm.fabs.f64(double) #3

declare dso_local i32 @printf(i8*, ...) #1


!llvm.module.flags = !{!0}
!llvm.ident = !{!1}

!0 = !{i32 1, !"wchar_size", i32 4}
!1 = !{!"clang version 10.0.0-4ubuntu1 "}
